target datalayout = "e-m:e-p270:32:32-p271:32:32-p272:64:64-i64:64-i128:128-f80:128-n8:16:32:64-S128"
target triple = "x86_64-pc-linux-gnu"

%struct.lib_blkoutstream_s = type { %struct.lib_outstream_s, ptr, %struct.geometry, ptr }
%struct.lib_outstream_s = type { i32, ptr, ptr, ptr }
%struct.geometry = type { i8, i8, i8, i32, i16, [33 x i8] }
%struct.inode = type { ptr, ptr, ptr, i16, i16, %union.inode_ops_u, i16, ptr, [1 x i8] }
%union.inode_ops_u = type { ptr }
%struct.block_operations = type { ptr, ptr, ptr, ptr, ptr, ptr, ptr }

; Function Attrs: nounwind uwtable
define internal i32 @blkoutstream_flush(ptr noundef %0) #0 {
  %2 = alloca ptr, align 8
  %3 = alloca ptr, align 8
  %4 = alloca i64, align 8
  %5 = alloca i32, align 4
  store ptr %0, ptr %2, align 8
  %6 = load ptr, ptr %2, align 8
  store ptr %6, ptr %3, align 8
  %7 = load ptr, ptr %3, align 8
  %8 = getelementptr inbounds %struct.lib_blkoutstream_s, ptr %7, i32 0, i32 2
  %9 = getelementptr inbounds %struct.geometry, ptr %8, i32 0, i32 4
  %10 = load i16, ptr %9, align 8
  %11 = sext i16 %10 to i64
  store i64 %11, ptr %4, align 8
  store i32 0, ptr %5, align 4
  %12 = load ptr, ptr %2, align 8
  %13 = getelementptr inbounds %struct.lib_outstream_s, ptr %12, i32 0, i32 0
  %14 = load i32, ptr %13, align 8
  %15 = sext i32 %14 to i64
  %16 = load i64, ptr %4, align 8
  %17 = urem i64 %15, %16
  %18 = icmp ugt i64 %17, 0
  br i1 %18, label %19, label %42

19:                                               ; preds = %1
  %20 = load ptr, ptr %3, align 8
  %21 = getelementptr inbounds %struct.lib_blkoutstream_s, ptr %20, i32 0, i32 1
  %22 = load ptr, ptr %21, align 8
  %23 = getelementptr inbounds %struct.inode, ptr %22, i32 0, i32 5
  %24 = load ptr, ptr %23, align 8
  %25 = getelementptr inbounds %struct.block_operations, ptr %24, i32 0, i32 3
  %26 = load ptr, ptr %25, align 8
  %27 = load ptr, ptr %3, align 8
  %28 = getelementptr inbounds %struct.lib_blkoutstream_s, ptr %27, i32 0, i32 1
  %29 = load ptr, ptr %28, align 8
  %30 = load ptr, ptr %3, align 8
  %31 = getelementptr inbounds %struct.lib_blkoutstream_s, ptr %30, i32 0, i32 3
  %32 = load ptr, ptr %31, align 8
  %33 = load ptr, ptr %2, align 8
  %34 = getelementptr inbounds %struct.lib_outstream_s, ptr %33, i32 0, i32 0
  %35 = load i32, ptr %34, align 8
  %36 = sext i32 %35 to i64
  %37 = load i64, ptr %4, align 8
  %38 = udiv i64 %36, %37
  %39 = trunc i64 %38 to i32
  %40 = call i64 %26(ptr noundef %29, ptr noundef %32, i32 noundef %39, i32 noundef 1)
  %41 = trunc i64 %40 to i32
  store i32 %41, ptr %5, align 4
  br label %42

42:                                               ; preds = %19, %1
  %43 = load i32, ptr %5, align 4
  ret i32 %43
}