; Function Attrs: nounwind uwtable
define internal i32 @blkoutstream_flush(ptr noundef readonly captures(none) %0) #0 {
  %2 = getelementptr inbounds nuw i8, ptr %0, i64 48
  %3 = load i16, ptr %2, align 8
  %4 = sext i16 %3 to i64
  %5 = load i32, ptr %0, align 8
  %6 = sext i32 %5 to i64
  %7 = urem i64 %6, %4
  %8 = udiv i64 %6, %4
  %.not = icmp eq i64 %7, 0
  br i1 %.not, label %21, label %9

9:                                                ; preds = %1
  %10 = getelementptr inbounds nuw i8, ptr %0, i64 32
  %11 = load ptr, ptr %10, align 8
  %12 = getelementptr inbounds nuw i8, ptr %11, i64 32
  %13 = load ptr, ptr %12, align 8
  %14 = getelementptr inbounds nuw i8, ptr %13, i64 24
  %15 = load ptr, ptr %14, align 8
  %16 = getelementptr inbounds nuw i8, ptr %0, i64 88
  %17 = load ptr, ptr %16, align 8
  %18 = trunc i64 %8 to i32
  %19 = tail call i64 %15(ptr noundef %11, ptr noundef %17, i32 noundef %18, i32 noundef 1) #6
  %20 = trunc i64 %19 to i32
  br label %21

21:                                               ; preds = %9, %1
  %.0 = phi i32 [ %20, %9 ], [ 0, %1 ]
  ret i32 %.0
}